target datalayout = "e-m:e-p270:32:32-p271:32:32-p272:64:64-i64:64-i128:128-f80:128-n8:16:32:64-S128"
target triple = "x86_64-pc-linux-gnu"

%union.lv_style_value_t = type { ptr }

; Function Attrs: nounwind uwtable
define void @lv_obj_set_y(ptr noundef %0, i32 noundef %1) #0 {
  %3 = alloca ptr, align 8
  %4 = alloca i32, align 4
  %5 = alloca i32, align 4
  %6 = alloca %union.lv_style_value_t, align 8
  store ptr %0, ptr %3, align 8, !tbaa !3
  store i32 %1, ptr %4, align 4, !tbaa !7
  br label %7

7:                                                ; preds = %2
  br label %8

8:                                                ; preds = %7
  call void @llvm.lifetime.start.p0(i64 4, ptr %5) #5
  call void @llvm.lifetime.start.p0(i64 8, ptr %6) #5
  %9 = load ptr, ptr %3, align 8, !tbaa !3
  %10 = call i32 @lv_obj_get_local_style_prop(ptr noundef %9, i8 noundef zeroext 9, ptr noundef %6, i32 noundef 0)
  store i32 %10, ptr %5, align 4, !tbaa !7
  %11 = load i32, ptr %5, align 4, !tbaa !7
  %12 = icmp eq i32 %11, 1
  br i1 %12, label %13, label %17

13:                                               ; preds = %8
  %14 = load i32, ptr %6, align 8, !tbaa !9
  %15 = load i32, ptr %4, align 4, !tbaa !7
  %16 = icmp ne i32 %14, %15
  br i1 %16, label %20, label %17

17:                                               ; preds = %13, %8
  %18 = load i32, ptr %5, align 4, !tbaa !7
  %19 = icmp eq i32 %18, 0
  br i1 %19, label %20, label %23

20:                                               ; preds = %17, %13
  %21 = load ptr, ptr %3, align 8, !tbaa !3
  %22 = load i32, ptr %4, align 4, !tbaa !7
  call void @lv_obj_set_style_y(ptr noundef %21, i32 noundef %22, i32 noundef 0)
  br label %23

23:                                               ; preds = %20, %17
  call void @llvm.lifetime.end.p0(i64 8, ptr %6) #5
  call void @llvm.lifetime.end.p0(i64 4, ptr %5) #5
  ret void
}

; Function Attrs: nounwind uwtable
define void @lv_obj_set_x(ptr noundef %0, i32 noundef %1) #0 {
  %3 = alloca ptr, align 8
  %4 = alloca i32, align 4
  %5 = alloca i32, align 4
  %6 = alloca %union.lv_style_value_t, align 8
  store ptr %0, ptr %3, align 8, !tbaa !3
  store i32 %1, ptr %4, align 4, !tbaa !7
  br label %7

7:                                                ; preds = %2
  br label %8

8:                                                ; preds = %7
  call void @llvm.lifetime.start.p0(i64 4, ptr %5) #5
  call void @llvm.lifetime.start.p0(i64 8, ptr %6) #5
  %9 = load ptr, ptr %3, align 8, !tbaa !3
  %10 = call i32 @lv_obj_get_local_style_prop(ptr noundef %9, i8 noundef zeroext 8, ptr noundef %6, i32 noundef 0)
  store i32 %10, ptr %5, align 4, !tbaa !7
  %11 = load i32, ptr %5, align 4, !tbaa !7
  %12 = icmp eq i32 %11, 1
  br i1 %12, label %13, label %17

13:                                               ; preds = %8
  %14 = load i32, ptr %6, align 8, !tbaa !9
  %15 = load i32, ptr %4, align 4, !tbaa !7
  %16 = icmp ne i32 %14, %15
  br i1 %16, label %20, label %17

17:                                               ; preds = %13, %8
  %18 = load i32, ptr %5, align 4, !tbaa !7
  %19 = icmp eq i32 %18, 0
  br i1 %19, label %20, label %23

20:                                               ; preds = %17, %13
  %21 = load ptr, ptr %3, align 8, !tbaa !3
  %22 = load i32, ptr %4, align 4, !tbaa !7
  call void @lv_obj_set_style_x(ptr noundef %21, i32 noundef %22, i32 noundef 0)
  br label %23

23:                                               ; preds = %20, %17
  call void @llvm.lifetime.end.p0(i64 8, ptr %6) #5
  call void @llvm.lifetime.end.p0(i64 4, ptr %5) #5
  ret void
}

; Function Attrs: nounwind uwtable
define void @lv_obj_set_pos(ptr noundef %0, i32 noundef %1, i32 noundef %2) #0 {
  %4 = alloca ptr, align 8
  %5 = alloca i32, align 4
  %6 = alloca i32, align 4
  store ptr %0, ptr %4, align 8, !tbaa !3
  store i32 %1, ptr %5, align 4, !tbaa !7
  store i32 %2, ptr %6, align 4, !tbaa !7
  br label %7

7:                                                ; preds = %3
  br label %8

8:                                                ; preds = %7
  %9 = load ptr, ptr %4, align 8, !tbaa !3
  %10 = load i32, ptr %5, align 4, !tbaa !7
  call void @lv_obj_set_x(ptr noundef %9, i32 noundef %10)
  %11 = load ptr, ptr %4, align 8, !tbaa !3
  %12 = load i32, ptr %6, align 4, !tbaa !7
  call void @lv_obj_set_y(ptr noundef %11, i32 noundef %12)
  ret void
}

; Function Attrs: nounwind uwtable
define void @lv_obj_align(ptr noundef %0, i32 noundef %1, i32 noundef %2, i32 noundef %3) #0 {
  %5 = alloca ptr, align 8
  %6 = alloca i32, align 4
  %7 = alloca i32, align 4
  %8 = alloca i32, align 4
  store ptr %0, ptr %5, align 8, !tbaa !3
  store i32 %1, ptr %6, align 4, !tbaa !7
  store i32 %2, ptr %7, align 4, !tbaa !7
  store i32 %3, ptr %8, align 4, !tbaa !7
  %9 = load ptr, ptr %5, align 8, !tbaa !3
  %10 = load i32, ptr %6, align 4, !tbaa !7
  call void @lv_obj_set_style_align(ptr noundef %9, i32 noundef %10, i32 noundef 0)
  %11 = load ptr, ptr %5, align 8, !tbaa !3
  %12 = load i32, ptr %7, align 4, !tbaa !7
  %13 = load i32, ptr %8, align 4, !tbaa !7
  call void @lv_obj_set_pos(ptr noundef %11, i32 noundef %12, i32 noundef %13)
  ret void
}