; Function Attrs: nounwind uwtable
define void @lv_obj_align(ptr noundef %0, i32 noundef %1, i32 noundef %2, i32 noundef %3) local_unnamed_addr #0 {
  %5 = alloca %union.lv_style_value_t, align 8
  %6 = alloca %union.lv_style_value_t, align 8
  tail call void @lv_obj_set_style_align(ptr noundef %0, i32 noundef %1, i32 noundef 0) #8
  call void @llvm.lifetime.start.p0(i64 8, ptr nonnull %6) #8
  %7 = call i32 @lv_obj_get_local_style_prop(ptr noundef %0, i8 noundef zeroext 8, ptr noundef nonnull %6, i32 noundef 0) #8
  switch i32 %7, label %lv_obj_set_x.exit.i [
    i32 1, label %8
    i32 0, label %10
  ]

8:                                                ; preds = %4
  %9 = load i32, ptr %6, align 8, !tbaa !3
  %.not.i.i = icmp eq i32 %9, %2
  br i1 %.not.i.i, label %lv_obj_set_x.exit.i, label %10

10:                                               ; preds = %8, %4
  call void @lv_obj_set_style_x(ptr noundef %0, i32 noundef %2, i32 noundef 0) #8
  br label %lv_obj_set_x.exit.i

lv_obj_set_x.exit.i:                              ; preds = %10, %8, %4
  call void @llvm.lifetime.end.p0(i64 8, ptr nonnull %6) #8
  call void @llvm.lifetime.start.p0(i64 8, ptr nonnull %5) #8
  %11 = call i32 @lv_obj_get_local_style_prop(ptr noundef %0, i8 noundef zeroext 9, ptr noundef nonnull %5, i32 noundef 0) #8
  switch i32 %11, label %lv_obj_set_pos.exit [
    i32 1, label %12
    i32 0, label %14
  ]

12:                                               ; preds = %lv_obj_set_x.exit.i
  %13 = load i32, ptr %5, align 8, !tbaa !3
  %.not.i3.i = icmp eq i32 %13, %3
  br i1 %.not.i3.i, label %lv_obj_set_pos.exit, label %14

14:                                               ; preds = %12, %lv_obj_set_x.exit.i
  call void @lv_obj_set_style_y(ptr noundef %0, i32 noundef %3, i32 noundef 0) #8
  br label %lv_obj_set_pos.exit

lv_obj_set_pos.exit:                              ; preds = %lv_obj_set_x.exit.i, %12, %14
  call void @llvm.lifetime.end.p0(i64 8, ptr nonnull %5) #8
  ret void
}